; Function Attrs: nounwind uwtable
define internal ptr @EVP_copy(ptr noundef %0, ptr readnone captures(none) %1) #0 {
  %3 = getelementptr i8, ptr %0, i64 8
  %.val.i = load ptr, ptr %3, align 8, !tbaa !22
  %4 = tail call ptr @_PyObject_New(ptr noundef %.val.i) #9
  %5 = icmp eq ptr %4, null
  br i1 %5, label %EVP_copy_impl.exit, label %6

6:                                                ; preds = %2
  %7 = getelementptr inbounds nuw i8, ptr %4, i64 25
  store i8 0, ptr %7, align 1, !tbaa !21
  %8 = getelementptr inbounds nuw i8, ptr %4, i64 24
  store i8 0, ptr %8, align 8, !tbaa !59
  %9 = tail call ptr @EVP_MD_CTX_new() #9
  %10 = getelementptr inbounds nuw i8, ptr %4, i64 16
  store ptr %9, ptr %10, align 8, !tbaa !62
  %11 = icmp eq ptr %9, null
  br i1 %11, label %12, label %newEVPobject.exit.i

12:                                               ; preds = %6
  %13 = load i32, ptr %4, align 8, !tbaa !21
  %.not.i.i.i = icmp sgt i32 %13, -1
  br i1 %.not.i.i.i, label %14, label %Py_DECREF.exit.i.i

14:                                               ; preds = %12
  %15 = add nsw i32 %13, -1
  store i32 %15, ptr %4, align 8, !tbaa !21
  %16 = icmp eq i32 %15, 0
  br i1 %16, label %17, label %Py_DECREF.exit.i.i

17:                                               ; preds = %14
  tail call void @_Py_Dealloc(ptr noundef nonnull %4) #9
  br label %Py_DECREF.exit.i.i

Py_DECREF.exit.i.i:                               ; preds = %17, %14, %12
  %18 = tail call ptr @PyErr_NoMemory() #9
  br label %EVP_copy_impl.exit

newEVPobject.exit.i:                              ; preds = %6
  %19 = getelementptr inbounds nuw i8, ptr %0, i64 24
  %20 = load i8, ptr %19, align 8, !tbaa !59, !range !26, !noundef !27
  %21 = trunc nuw i8 %20 to i1
  br i1 %21, label %22, label %_PyMutex_Lock.exit.i.i

22:                                               ; preds = %newEVPobject.exit.i
  %23 = getelementptr inbounds nuw i8, ptr %0, i64 25
  %24 = cmpxchg ptr %23, i8 0, i8 1 seq_cst seq_cst, align 1
  %25 = extractvalue { i8, i1 } %24, 1
  br i1 %25, label %_PyMutex_Lock.exit.i.i, label %26

26:                                               ; preds = %22
  tail call void @PyMutex_Lock(ptr noundef nonnull %23) #9
  br label %_PyMutex_Lock.exit.i.i

_PyMutex_Lock.exit.i.i:                           ; preds = %26, %22, %newEVPobject.exit.i
  %27 = getelementptr inbounds nuw i8, ptr %0, i64 16
  %28 = load ptr, ptr %27, align 8, !tbaa !62
  %29 = tail call i32 @EVP_MD_CTX_copy(ptr noundef nonnull %9, ptr noundef %28) #9
  %30 = load i8, ptr %19, align 8, !tbaa !59, !range !26, !noundef !27
  %31 = trunc nuw i8 %30 to i1
  br i1 %31, label %32, label %locked_EVP_MD_CTX_copy.exit.i

32:                                               ; preds = %_PyMutex_Lock.exit.i.i
  %33 = getelementptr inbounds nuw i8, ptr %0, i64 25
  %34 = cmpxchg ptr %33, i8 1, i8 0 seq_cst seq_cst, align 1
  %35 = extractvalue { i8, i1 } %34, 1
  br i1 %35, label %locked_EVP_MD_CTX_copy.exit.i, label %36

36:                                               ; preds = %32
  tail call void @PyMutex_Unlock(ptr noundef nonnull %33) #9
  br label %locked_EVP_MD_CTX_copy.exit.i

locked_EVP_MD_CTX_copy.exit.i:                    ; preds = %36, %32, %_PyMutex_Lock.exit.i.i
  %.not.i = icmp eq i32 %29, 0
  br i1 %.not.i, label %37, label %EVP_copy_impl.exit

37:                                               ; preds = %locked_EVP_MD_CTX_copy.exit.i
  %38 = load i32, ptr %4, align 8, !tbaa !21
  %.not.i.i = icmp sgt i32 %38, -1
  br i1 %.not.i.i, label %39, label %Py_DECREF.exit.i

39:                                               ; preds = %37
  %40 = add nsw i32 %38, -1
  store i32 %40, ptr %4, align 8, !tbaa !21
  %41 = icmp eq i32 %40, 0
  br i1 %41, label %42, label %Py_DECREF.exit.i

42:                                               ; preds = %39
  tail call void @_Py_Dealloc(ptr noundef nonnull %4) #9
  br label %Py_DECREF.exit.i

Py_DECREF.exit.i:                                 ; preds = %42, %39, %37
  %43 = load ptr, ptr @PyExc_ValueError, align 8, !tbaa !23
  tail call void (ptr, ptr, ...) @_setException(ptr noundef %43, ptr noundef null)
  br label %EVP_copy_impl.exit

EVP_copy_impl.exit:                               ; preds = %2, %Py_DECREF.exit.i.i, %locked_EVP_MD_CTX_copy.exit.i, %Py_DECREF.exit.i
  %.0.i = phi ptr [ null, %Py_DECREF.exit.i ], [ %4, %locked_EVP_MD_CTX_copy.exit.i ], [ null, %Py_DECREF.exit.i.i ], [ null, %2 ]
  ret ptr %.0.i
}